; Function Attrs: mustprogress nounwind willreturn uwtable
define dso_local void @php_ini_builder_define(ptr noundef captures(none) %0, ptr noundef %1) local_unnamed_addr #0 {
  %3 = tail call i64 @strlen(ptr noundef nonnull dereferenceable(1) %1) #6
  %4 = tail call ptr @strchr(ptr noundef nonnull dereferenceable(1) %1, i32 noundef 61) #6
  %.not = icmp eq ptr %4, null
  br i1 %.not, label %52, label %5

5:                                                ; preds = %2
  %6 = getelementptr inbounds nuw i8, ptr %4, i64 1
  %7 = tail call ptr @__ctype_b_loc() #7
  %8 = load ptr, ptr %7, align 8, !tbaa !13
  %9 = load i8, ptr %6, align 1, !tbaa !12
  %10 = sext i8 %9 to i64
  %11 = getelementptr inbounds i16, ptr %8, i64 %10
  %12 = load i16, ptr %11, align 2, !tbaa !15
  %.fr35 = freeze i16 %12
  %13 = and i16 %.fr35, 8
  %.not29.not = icmp eq i16 %13, 0
  br i1 %.not29.not, label %switch.early.test, label %40

switch.early.test:                                ; preds = %5
  switch i8 %9, label %14 [
    i8 39, label %40
    i8 34, label %40
    i8 0, label %40
  ]

14:                                               ; preds = %switch.early.test
  %15 = ptrtoint ptr %6 to i64
  %16 = ptrtoint ptr %1 to i64
  %17 = xor i64 %16, -1
  %18 = add i64 %15, %17
  %19 = getelementptr inbounds nuw i8, ptr %1, i64 %3
  %20 = ptrtoint ptr %19 to i64
  %21 = sub i64 %20, %15
  %22 = load ptr, ptr %0, align 8, !tbaa !4
  %23 = getelementptr inbounds nuw i8, ptr %0, i64 8
  %24 = load i64, ptr %23, align 8, !tbaa !11
  %25 = add i64 %18, 5
  %26 = add i64 %25, %21
  %27 = add i64 %26, %24
  %28 = tail call ptr @realloc(ptr noundef %22, i64 noundef %27) #5
  store ptr %28, ptr %0, align 8, !tbaa !4
  %29 = load i64, ptr %23, align 8, !tbaa !11
  %30 = getelementptr inbounds nuw i8, ptr %28, i64 %29
  tail call void @llvm.memcpy.p0.p0.i64(ptr align 1 %30, ptr nonnull readonly align 1 %1, i64 %18, i1 false)
  %31 = add i64 %29, %18
  %32 = getelementptr inbounds nuw i8, ptr %28, i64 %31
  store i8 61, ptr %32, align 1, !tbaa !12
  %33 = add i64 %31, 2
  store i64 %33, ptr %23, align 8, !tbaa !11
  %34 = getelementptr i8, ptr %32, i64 1
  store i8 34, ptr %34, align 1, !tbaa !12
  %35 = getelementptr inbounds nuw i8, ptr %28, i64 %33
  tail call void @llvm.memcpy.p0.p0.i64(ptr align 1 %35, ptr nonnull readonly align 1 %6, i64 %21, i1 false)
  %36 = add i64 %33, %21
  %37 = getelementptr inbounds nuw i8, ptr %28, i64 %36
  store i8 34, ptr %37, align 1, !tbaa !12
  %38 = add i64 %36, 2
  store i64 %38, ptr %23, align 8, !tbaa !11
  %39 = getelementptr i8, ptr %37, i64 1
  store i8 10, ptr %39, align 1, !tbaa !12
  br label %67

40:                                               ; preds = %switch.early.test, %switch.early.test, %switch.early.test, %5
  %41 = load ptr, ptr %0, align 8, !tbaa !4
  %42 = getelementptr inbounds nuw i8, ptr %0, i64 8
  %43 = load i64, ptr %42, align 8, !tbaa !11
  %44 = add i64 %3, 2
  %45 = add i64 %44, %43
  %46 = tail call ptr @realloc(ptr noundef %41, i64 noundef %45) #5
  store ptr %46, ptr %0, align 8, !tbaa !4
  %47 = load i64, ptr %42, align 8, !tbaa !11
  %48 = getelementptr inbounds nuw i8, ptr %46, i64 %47
  tail call void @llvm.memcpy.p0.p0.i64(ptr align 1 %48, ptr nonnull align 1 %1, i64 %3, i1 false)
  %49 = add i64 %47, %3
  %50 = add i64 %49, 1
  store i64 %50, ptr %42, align 8, !tbaa !11
  %51 = getelementptr inbounds nuw i8, ptr %46, i64 %49
  store i8 10, ptr %51, align 1, !tbaa !12
  br label %67

52:                                               ; preds = %2
  %53 = load ptr, ptr %0, align 8, !tbaa !4
  %54 = getelementptr inbounds nuw i8, ptr %0, i64 8
  %55 = load i64, ptr %54, align 8, !tbaa !11
  %56 = add i64 %3, 4
  %57 = add i64 %56, %55
  %58 = tail call ptr @realloc(ptr noundef %53, i64 noundef %57) #5
  store ptr %58, ptr %0, align 8, !tbaa !4
  %59 = load i64, ptr %54, align 8, !tbaa !11
  %60 = getelementptr inbounds nuw i8, ptr %58, i64 %59
  tail call void @llvm.memcpy.p0.p0.i64(ptr align 1 %60, ptr nonnull readonly align 1 %1, i64 %3, i1 false)
  %61 = add i64 %59, %3
  %62 = getelementptr i8, ptr %58, i64 %61
  store i8 61, ptr %62, align 1, !tbaa !12
  %63 = getelementptr i8, ptr %58, i64 %61
  %64 = getelementptr i8, ptr %63, i64 1
  store i8 49, ptr %64, align 1
  %65 = add i64 %61, 3
  store i64 %65, ptr %54, align 8, !tbaa !11
  %66 = getelementptr i8, ptr %62, i64 2
  store i8 10, ptr %66, align 1, !tbaa !12
  br label %67

67:                                               ; preds = %14, %40, %52
  ret void
}